Certificate:
    Data:
        Version: 3 (0x2)
        Serial Number: 1 (0x1)
    Signature Algorithm: md5WithRSAEncryption
        Issuer: C=AU, ST=Western Australia, L=Perth, O=University of Western Australia, O=CSSE, OU=LinkBroker, CN=Alvar/emailAddress=20845163@student.uwa.edu.au
        Validity
            Not Before: Oct 24 09:17:19 2013 GMT
            Not After : Oct 24 09:17:19 2014 GMT
        Subject: C=AU, ST=Western Australia, L=Perth, O=University of Western Australia, O=CSSE, OU=LinkBroker, CN=Michael
        Subject Public Key Info:
            Public Key Algorithm: rsaEncryption
                Public-Key: (1024 bit)
                Modulus:
                    00:b2:08:8e:57:f4:67:5f:fc:11:34:89:41:46:a3:
                    9c:7a:d2:a7:84:80:88:50:bc:75:62:e0:08:92:d9:
                    aa:00:b7:0a:69:72:22:28:e4:69:ab:0b:5e:c2:24:
                    7c:82:01:d6:04:8d:3b:5d:10:63:f1:f3:f2:3e:85:
                    be:a3:86:06:c4:80:16:c0:2f:0d:b4:56:b4:83:a3:
                    b6:be:a8:20:e7:86:e8:21:f7:42:32:32:20:6c:97:
                    28:35:01:60:02:25:f8:b2:a6:67:d2:93:4b:fa:45:
                    dc:a0:5f:fd:07:ff:60:36:24:c1:98:38:97:84:fa:
                    cc:cf:83:e9:94:0c:35:34:a5
                Exponent: 65537 (0x10001)
        X509v3 extensions:
            X509v3 Basic Constraints: 
                CA:FALSE
            Netscape Comment: 
                OpenSSL Generated Certificate
            X509v3 Subject Key Identifier: 
                7F:69:E3:31:63:98:47:05:06:A0:1C:DF:7D:82:E5:61:DA:8C:E0:CE
            X509v3 Authority Key Identifier: 
                keyid:B9:6D:50:CA:51:E1:56:9F:37:B2:9C:E6:CD:56:B4:09:FD:5D:7D:CC
                DirName:/C=AU/ST=Western Australia/L=Perth/O=University of Western Australia/O=CSSE/OU=LinkBroker/CN=Alvar/emailAddress=20845163@student.uwa.edu.au
                serial:EB:D9:42:E5:D6:C0:C5:C2

    Signature Algorithm: md5WithRSAEncryption
         3c:72:d8:96:b3:be:8b:d3:91:66:77:34:70:3b:de:af:3b:87:
         3e:c8:ff:25:eb:29:b9:9a:1f:ce:fb:70:3d:fd:11:aa:c4:19:
         5e:a8:61:71:e0:d1:3a:74:d7:31:d4:e6:c5:17:be:64:61:0f:
         18:e4:43:cf:8f:e0:78:b8:66:f8:37:44:e3:89:36:6e:46:81:
         dc:2d:a1:46:b3:d4:13:a4:52:07:44:5c:17:e8:fd:f7:72:ff:
         52:93:21:1d:21:41:c6:5b:19:d3:fd:e5:16:2d:22:dc:d1:bf:
         36:9d:bb:5a:d2:15:2e:51:65:7c:20:07:4c:ae:01:d9:bc:de:
         2c:73:14:35:f5:06:fc:90:76:f2:e2:f8:12:70:ba:d9:91:23:
         0a:05:29:93:e0:65:5b:61:25:69:56:bf:5d:59:97:36:2e:c6:
         d8:1c:b9:eb:98:1d:ff:02:33:18:0d:01:19:de:e8:72:b6:09:
         47:52:81:30:f8:5e:08:71:56:b8:fa:de:b0:b5:1f:f8:e0:44:
         09:ce:3e:9f:f8:b8:cd:f5:e6:48:e8:b5:24:37:f9:39:a2:72:
         ca:17:75:85:4c:26:a9:0d:ce:7a:0a:56:9e:74:cb:7b:c0:9e:
         b3:ea:43:c7:a7:4f:7f:49:91:19:54:6a:42:48:73:3c:61:ac:
         e3:2e:cd:5e
-----BEGIN CERTIFICATE-----
MIIErjCCA5agAwIBAgIBATANBgkqhkiG9w0BAQQFADCBwzELMAkGA1UEBhMCQVUx
GjAYBgNVBAgTEVdlc3Rlcm4gQXVzdHJhbGlhMQ4wDAYDVQQHEwVQZXJ0aDEoMCYG
A1UEChMfVW5pdmVyc2l0eSBvZiBXZXN0ZXJuIEF1c3RyYWxpYTENMAsGA1UEChME
Q1NTRTETMBEGA1UECxMKTGlua0Jyb2tlcjEOMAwGA1UEAxMFQWx2YXIxKjAoBgkq
hkiG9w0BCQEWGzIwODQ1MTYzQHN0dWRlbnQudXdhLmVkdS5hdTAeFw0xMzEwMjQw
OTE3MTlaFw0xNDEwMjQwOTE3MTlaMIGZMQswCQYDVQQGEwJBVTEaMBgGA1UECBMR
V2VzdGVybiBBdXN0cmFsaWExDjAMBgNVBAcTBVBlcnRoMSgwJgYDVQQKEx9Vbml2
ZXJzaXR5IG9mIFdlc3Rlcm4gQXVzdHJhbGlhMQ0wCwYDVQQKEwRDU1NFMRMwEQYD
VQQLEwpMaW5rQnJva2VyMRAwDgYDVQQDEwdNaWNoYWVsMIGfMA0GCSqGSIb3DQEB
AQUAA4GNADCBiQKBgQCyCI5X9Gdf/BE0iUFGo5x60qeEgIhQvHVi4AiS2aoAtwpp
ciIo5GmrC17CJHyCAdYEjTtdEGPx8/I+hb6jhgbEgBbALw20VrSDo7a+qCDnhugh
90IyMiBslyg1AWACJfiypmfSk0v6RdygX/0H/2A2JMGYOJeE+szPg+mUDDU0pQID
AQABo4IBVzCCAVMwCQYDVR0TBAIwADAsBglghkgBhvhCAQ0EHxYdT3BlblNTTCBH
ZW5lcmF0ZWQgQ2VydGlmaWNhdGUwHQYDVR0OBBYEFH9p4zFjmEcFBqAc332C5WHa
jODOMIH4BgNVHSMEgfAwge2AFLltUMpR4VafN7Kc5s1WtAn9XX3MoYHJpIHGMIHD
MQswCQYDVQQGEwJBVTEaMBgGA1UECBMRV2VzdGVybiBBdXN0cmFsaWExDjAMBgNV
BAcTBVBlcnRoMSgwJgYDVQQKEx9Vbml2ZXJzaXR5IG9mIFdlc3Rlcm4gQXVzdHJh
bGlhMQ0wCwYDVQQKEwRDU1NFMRMwEQYDVQQLEwpMaW5rQnJva2VyMQ4wDAYDVQQD
EwVBbHZhcjEqMCgGCSqGSIb3DQEJARYbMjA4NDUxNjNAc3R1ZGVudC51d2EuZWR1
LmF1ggkA69lC5dbAxcIwDQYJKoZIhvcNAQEEBQADggEBADxy2JazvovTkWZ3NHA7
3q87hz7I/yXrKbmaH877cD39EarEGV6oYXHg0Tp01zHU5sUXvmRhDxjkQ8+P4Hi4
Zvg3ROOJNm5GgdwtoUaz1BOkUgdEXBfo/fdy/1KTIR0hQcZbGdP95RYtItzRvzad
u1rSFS5RZXwgB0yuAdm83ixzFDX1BvyQdvLi+BJwutmRIwoFKZPgZVthJWlWv11Z
lzYuxtgcueuYHf8CMxgNARne6HK2CUdSgTD4XghxVrj63rC1H/jgRAnOPp/4uM31
5kjotSQ3+TmicsoXdYVMJqkNznoKVp50y3vAnrPqQ8enT39JkRlUakJIczxhrOMu
zV4=
-----END CERTIFICATE-----
